; Function Attrs: mustprogress nofree norecurse nosync nounwind willreturn memory(read, inaccessiblemem: none) uwtable
define internal range(i32 -1, 2) i32 @_sort_job_by_priority(ptr noundef readonly captures(none) %0, ptr noundef readonly captures(none) %1) #5 {
  %.val8 = load ptr, ptr %0, align 8
  %3 = getelementptr i8, ptr %.val8, i64 24
  %.val8.val = load i32, ptr %3, align 8
  %4 = load ptr, ptr %1, align 8
  %5 = getelementptr inbounds nuw i8, ptr %4, i64 24
  %6 = load i32, ptr %5, align 8
  %.0.i = tail call range(i32 -1, 2) i32 @llvm.ucmp.i32.i32(i32 %.val8.val, i32 %6)
  %7 = icmp eq i32 %.val8.val, %6
  br i1 %7, label %8, label %16

8:                                                ; preds = %2
  %9 = getelementptr i8, ptr %.val8, i64 8
  %.val.val = load ptr, ptr %9, align 8
  %10 = getelementptr inbounds nuw i8, ptr %4, i64 8
  %11 = load ptr, ptr %10, align 8
  %12 = getelementptr inbounds nuw i8, ptr %.val.val, i64 624
  %13 = load i32, ptr %12, align 8
  %14 = getelementptr inbounds nuw i8, ptr %11, i64 624
  %15 = load i32, ptr %14, align 8
  %.0.i9 = tail call range(i32 -1, 2) i32 @llvm.ucmp.i32.i32(i32 %13, i32 %15)
  br label %16

16:                                               ; preds = %8, %2
  %.0 = phi i32 [ %.0.i9, %8 ], [ %.0.i, %2 ]
  %.b7 = load i1, ptr @reverse_order, align 1
  %17 = sub nsw i32 0, %.0
  %spec.select = select i1 %.b7, i32 %17, i32 %.0
  ret i32 %spec.select
}